; Function Attrs: nounwind uwtable
define i64 @evbuffer_copyout(ptr noundef readonly captures(none) %0, ptr noundef writeonly captures(none) %1, i64 noundef %2) local_unnamed_addr #1 {
  %4 = getelementptr inbounds nuw i8, ptr %0, i64 56
  %5 = load ptr, ptr %4, align 8
  %.not.i = icmp eq ptr %5, null
  br i1 %.not.i, label %9, label %6

6:                                                ; preds = %3
  %7 = load ptr, ptr getelementptr inbounds nuw (i8, ptr @evthread_lock_fns_, i64 24), align 8
  %8 = tail call i32 %7(i32 noundef 0, ptr noundef nonnull %5) #16
  br label %9

9:                                                ; preds = %6, %3
  %10 = getelementptr inbounds nuw i8, ptr %0, i64 24
  %11 = load i64, ptr %10, align 8
  %spec.select64.i = tail call i64 @llvm.umin.i64(i64 %2, i64 %11)
  %12 = icmp eq i64 %spec.select64.i, 0
  br i1 %12, label %.critedge65.i, label %13

13:                                               ; preds = %9
  %14 = getelementptr inbounds nuw i8, ptr %0, i64 64
  %15 = load i8, ptr %14, align 8
  %16 = and i8 %15, 2
  %.not60.i = icmp eq i8 %16, 0
  br i1 %.not60.i, label %.preheader.i, label %.critedge65.i

.preheader.i:                                     ; preds = %13, %24
  %.14974.in.i = phi ptr [ %.14974.i, %24 ], [ %0, %13 ]
  %.173.i = phi i64 [ %26, %24 ], [ %spec.select64.i, %13 ]
  %.05071.i = phi ptr [ %25, %24 ], [ %1, %13 ]
  %.14974.i = load ptr, ptr %.14974.in.i, align 8
  %17 = getelementptr inbounds nuw i8, ptr %.14974.i, i64 24
  %18 = load i64, ptr %17, align 8
  %.not62.i = icmp ult i64 %.173.i, %18
  %19 = getelementptr inbounds nuw i8, ptr %.14974.i, i64 40
  %20 = load ptr, ptr %19, align 8
  %21 = getelementptr inbounds nuw i8, ptr %.14974.i, i64 16
  %22 = load i64, ptr %21, align 8
  %23 = getelementptr inbounds i8, ptr %20, i64 %22
  br i1 %.not62.i, label %.critedge.i, label %24

24:                                               ; preds = %.preheader.i
  tail call void @llvm.memcpy.p0.p0.i64(ptr align 1 %.05071.i, ptr align 1 %23, i64 %18, i1 false)
  %25 = getelementptr inbounds nuw i8, ptr %.05071.i, i64 %18
  %26 = sub nuw i64 %.173.i, %18
  %.not61.i = icmp eq i64 %26, 0
  br i1 %.not61.i, label %.critedge65.i, label %.preheader.i, !llvm.loop !22

.critedge.i:                                      ; preds = %.preheader.i
  tail call void @llvm.memcpy.p0.p0.i64(ptr align 1 %.05071.i, ptr align 1 %23, i64 %.173.i, i1 false)
  br label %.critedge65.i

.critedge65.i:                                    ; preds = %24, %.critedge.i, %13, %9
  %.047.i = phi i64 [ 0, %9 ], [ -1, %13 ], [ %spec.select64.i, %.critedge.i ], [ %spec.select64.i, %24 ]
  %27 = load ptr, ptr %4, align 8
  %.not63.i = icmp eq ptr %27, null
  br i1 %.not63.i, label %evbuffer_copyout_from.exit, label %28

28:                                               ; preds = %.critedge65.i
  %29 = load ptr, ptr getelementptr inbounds nuw (i8, ptr @evthread_lock_fns_, i64 32), align 8
  %30 = tail call i32 %29(i32 noundef 0, ptr noundef nonnull %27) #16
  br label %evbuffer_copyout_from.exit

evbuffer_copyout_from.exit:                       ; preds = %.critedge65.i, %28
  ret i64 %.047.i
}